; Function Attrs: nounwind sspstrong uwtable
define internal fastcc i64 @enumerator_peek_values(i64 noundef %0) unnamed_addr #0 {
  %2 = tail call ptr @rb_check_typeddata(i64 noundef %0, ptr noundef nonnull @enumerator_data_type) #18
  %.not.i = icmp eq ptr %2, null
  br i1 %.not.i, label %6, label %3

3:                                                ; preds = %1
  %4 = load i64, ptr %2, align 8, !tbaa !17
  %5 = icmp eq i64 %4, 36
  br i1 %5, label %6, label %enumerator_ptr.exit

6:                                                ; preds = %3, %1
  %7 = load i64, ptr @rb_eArgError, align 8, !tbaa !7
  tail call void (i64, ptr, ...) @rb_raise(i64 noundef %7, ptr noundef nonnull @.str.103) #19
  unreachable

enumerator_ptr.exit:                              ; preds = %3
  %8 = icmp eq i64 %0, 0
  %9 = and i64 %0, 7
  %10 = icmp ne i64 %9, 0
  %11 = or i1 %8, %10
  br i1 %11, label %RB_OBJ_FROZEN.exit.thread.i, label %RB_FL_ABLE.exit.i.i, !prof !20

RB_FL_ABLE.exit.i.i:                              ; preds = %enumerator_ptr.exit
  %12 = inttoptr i64 %0 to ptr
  %13 = load i64, ptr %12, align 8, !tbaa !21
  %14 = and i64 %13, 31
  %.not.i.i = icmp eq i64 %14, 27
  %15 = and i64 %13, 2048
  %16 = icmp ne i64 %15, 0
  %or.cond.i = or i1 %.not.i.i, %16
  br i1 %or.cond.i, label %RB_OBJ_FROZEN.exit.thread.i, label %rbimpl_RB_TYPE_P_fastpath.exit.i, !prof !22

RB_OBJ_FROZEN.exit.thread.i:                      ; preds = %RB_FL_ABLE.exit.i.i, %enumerator_ptr.exit
  tail call void @rb_error_frozen_object(i64 noundef %0) #19
  unreachable

rbimpl_RB_TYPE_P_fastpath.exit.i:                 ; preds = %RB_FL_ABLE.exit.i.i
  %17 = icmp ne i64 %14, 5
  %18 = and i64 %13, 49152
  %.not.i7 = icmp eq i64 %18, 0
  %or.cond8.i = or i1 %17, %.not.i7
  br i1 %or.cond8.i, label %rb_check_frozen_inline.exit, label %19, !prof !23

19:                                               ; preds = %rbimpl_RB_TYPE_P_fastpath.exit.i
  tail call void @rb_str_modify(i64 noundef %0) #18
  br label %rb_check_frozen_inline.exit

rb_check_frozen_inline.exit:                      ; preds = %rbimpl_RB_TYPE_P_fastpath.exit.i, %19
  %20 = getelementptr inbounds nuw i8, ptr %2, i64 40
  %21 = load i64, ptr %20, align 8, !tbaa !27
  %22 = icmp eq i64 %21, 36
  br i1 %22, label %23, label %rb_obj_write.exit

23:                                               ; preds = %rb_check_frozen_inline.exit
  %24 = tail call fastcc i64 @get_next_values(i64 noundef %0, ptr noundef %2)
  store i64 %24, ptr %20, align 8, !tbaa !7
  %25 = icmp eq i64 %24, 0
  %26 = and i64 %24, 7
  %27 = icmp ne i64 %26, 0
  %28 = or i1 %25, %27
  br i1 %28, label %rb_obj_write.exit, label %29

29:                                               ; preds = %23
  tail call void @rb_gc_writebarrier(i64 noundef %0, i64 noundef %24) #18
  %.pre = load i64, ptr %20, align 8, !tbaa !27
  br label %rb_obj_write.exit

rb_obj_write.exit:                                ; preds = %29, %23, %rb_check_frozen_inline.exit
  %30 = phi i64 [ %.pre, %29 ], [ %24, %23 ], [ %21, %rb_check_frozen_inline.exit ]
  ret i64 %30
}